target datalayout = "e-m:e-p270:32:32-p271:32:32-p272:64:64-i64:64-i128:128-f80:128-n8:16:32:64-S128"
target triple = "x86_64-pc-linux-gnu"

%"class.lean::object_ref" = type { ptr }
%struct.lean_object = type { i32, i32 }
%struct.lean_ctor_object = type { %struct.lean_object, [0 x ptr] }

@_ZN4leanL8g_opaqueE = internal global ptr null, align 8

; Function Attrs: inlinehint mustprogress nounwind uwtable
define internal noundef zeroext i8 @_ZL12lean_ptr_tagP11lean_object(ptr noundef %0) #6 {
  %2 = alloca ptr, align 8
  store ptr %0, ptr %2, align 8, !tbaa !10
  %3 = load ptr, ptr %2, align 8, !tbaa !10
  %4 = getelementptr inbounds nuw %struct.lean_object, ptr %3, i32 0, i32 1
  %5 = load i32, ptr %4, align 4
  %6 = lshr i32 %5, 24
  %7 = trunc i32 %6 to i8
  ret i8 %7
}

; Function Attrs: inlinehint mustprogress nounwind uwtable
define internal noundef ptr @_ZL12lean_to_ctorP11lean_object(ptr noundef %0) #6 {
  %2 = alloca ptr, align 8
  store ptr %0, ptr %2, align 8, !tbaa !10
  %3 = load ptr, ptr %2, align 8, !tbaa !10
  ret ptr %3
}

; Function Attrs: inlinehint mustprogress nounwind uwtable
define linkonce_odr hidden noundef i32 @_ZN4lean9cnstr_tagEP11lean_object(ptr noundef %0) #6 comdat {
  %2 = alloca ptr, align 8
  store ptr %0, ptr %2, align 8, !tbaa !10
  %3 = load ptr, ptr %2, align 8, !tbaa !10
  %4 = call noundef zeroext i8 @_ZL12lean_ptr_tagP11lean_object(ptr noundef %3)
  %5 = zext i8 %4 to i32
  ret i32 %5
}

; Function Attrs: inlinehint mustprogress nounwind uwtable
define linkonce_odr hidden noundef nonnull align 8 dereferenceable(8) ptr @_ZN4lean13cnstr_get_refEP11lean_objectj(ptr noundef %0, i32 noundef %1) #6 comdat {
  %3 = alloca ptr, align 8
  %4 = alloca i32, align 4
  store ptr %0, ptr %3, align 8, !tbaa !10
  store i32 %1, ptr %4, align 4, !tbaa !3
  %5 = load ptr, ptr %3, align 8, !tbaa !10
  %6 = call noundef ptr @_ZL12lean_to_ctorP11lean_object(ptr noundef %5)
  %7 = getelementptr inbounds nuw %struct.lean_ctor_object, ptr %6, i32 0, i32 1
  %8 = getelementptr inbounds [0 x ptr], ptr %7, i64 0, i64 0
  %9 = load i32, ptr %4, align 4, !tbaa !3
  %10 = zext i32 %9 to i64
  %11 = getelementptr inbounds nuw %"class.lean::object_ref", ptr %8, i64 %10
  ret ptr %11
}

; Function Attrs: mustprogress nounwind uwtable
define linkonce_odr hidden noundef ptr @_ZNK4lean10object_ref3rawEv(ptr noundef nonnull align 8 dereferenceable(8) %0) #5 comdat align 2 {
  %2 = alloca ptr, align 8
  store ptr %0, ptr %2, align 8, !tbaa !11
  %3 = load ptr, ptr %2, align 8
  %4 = getelementptr inbounds nuw %"class.lean::object_ref", ptr %3, i32 0, i32 0
  %5 = load ptr, ptr %4, align 8, !tbaa !13
  ret ptr %5
}

; Function Attrs: mustprogress nounwind uwtable
define linkonce_odr hidden noundef i32 @_ZNK4lean13constant_info4kindEv(ptr noundef nonnull align 8 dereferenceable(8) %0) #5 comdat align 2 {
  %2 = alloca ptr, align 8
  store ptr %0, ptr %2, align 8, !tbaa !83
  %3 = load ptr, ptr %2, align 8
  %4 = call noundef ptr @_ZNK4lean10object_ref3rawEv(ptr noundef nonnull align 8 dereferenceable(8) %3)
  %5 = call noundef i32 @_ZN4lean9cnstr_tagEP11lean_object(ptr noundef %4)
  ret i32 %5
}

; Function Attrs: inlinehint mustprogress nounwind uwtable
define linkonce_odr hidden noundef nonnull align 8 dereferenceable(8) ptr @_ZN4lean13cnstr_get_refERKNS_10object_refEj(ptr noundef nonnull align 8 dereferenceable(8) %0, i32 noundef %1) #6 comdat {
  %3 = alloca ptr, align 8
  %4 = alloca i32, align 4
  store ptr %0, ptr %3, align 8, !tbaa !11
  store i32 %1, ptr %4, align 4, !tbaa !3
  %5 = load ptr, ptr %3, align 8, !tbaa !11
  %6 = call noundef ptr @_ZNK4lean10object_ref3rawEv(ptr noundef nonnull align 8 dereferenceable(8) %5)
  %7 = load i32, ptr %4, align 4, !tbaa !3
  %8 = call noundef nonnull align 8 dereferenceable(8) ptr @_ZN4lean13cnstr_get_refEP11lean_objectj(ptr noundef %6, i32 noundef %7)
  ret ptr %8
}

; Function Attrs: mustprogress nounwind uwtable
define linkonce_odr hidden noundef nonnull align 8 dereferenceable(8) ptr @_ZNK4lean13constant_info6to_valEv(ptr noundef nonnull align 8 dereferenceable(8) %0) #5 comdat align 2 {
  %2 = alloca ptr, align 8
  store ptr %0, ptr %2, align 8, !tbaa !83
  %3 = load ptr, ptr %2, align 8
  %4 = call noundef nonnull align 8 dereferenceable(8) ptr @_ZN4lean13cnstr_get_refERKNS_10object_refEj(ptr noundef nonnull align 8 dereferenceable(8) %3, i32 noundef 0)
  ret ptr %4
}

; Function Attrs: mustprogress uwtable
define linkonce_odr hidden noundef zeroext i1 @_ZNK4lean13constant_info13is_definitionEv(ptr noundef nonnull align 8 dereferenceable(8) %0) #0 comdat align 2 {
  %2 = alloca ptr, align 8
  store ptr %0, ptr %2, align 8, !tbaa !83
  %3 = load ptr, ptr %2, align 8
  %4 = call noundef i32 @_ZNK4lean13constant_info4kindEv(ptr noundef nonnull align 8 dereferenceable(8) %3)
  %5 = icmp eq i32 %4, 1
  ret i1 %5
}

; Function Attrs: mustprogress uwtable
define hidden noundef nonnull align 8 dereferenceable(8) ptr @_ZNK4lean13constant_info9get_hintsEv(ptr noundef nonnull align 8 dereferenceable(8) %0) #0 align 2 {
  %2 = alloca ptr, align 8
  %3 = alloca ptr, align 8
  store ptr %0, ptr %3, align 8, !tbaa !83
  %4 = load ptr, ptr %3, align 8
  %5 = call noundef zeroext i1 @_ZNK4lean13constant_info13is_definitionEv(ptr noundef nonnull align 8 dereferenceable(8) %4)
  br i1 %5, label %6, label %9

6:                                                ; preds = %1
  %7 = call noundef nonnull align 8 dereferenceable(8) ptr @_ZNK4lean13constant_info6to_valEv(ptr noundef nonnull align 8 dereferenceable(8) %4)
  %8 = call noundef nonnull align 8 dereferenceable(8) ptr @_ZN4lean13cnstr_get_refERKNS_10object_refEj(ptr noundef nonnull align 8 dereferenceable(8) %7, i32 noundef 2)
  store ptr %8, ptr %2, align 8
  br label %11

9:                                                ; preds = %1
  %10 = load ptr, ptr @_ZN4leanL8g_opaqueE, align 8, !tbaa !7
  store ptr %10, ptr %2, align 8
  br label %11

11:                                               ; preds = %9, %6
  %12 = load ptr, ptr %2, align 8
  ret ptr %12
}