; Function Attrs: mustprogress nofree norecurse nosync nounwind willreturn memory(read, inaccessiblemem: none) uwtable
define hidden noundef nonnull align 8 dereferenceable(8) ptr @_ZNK4lean13constant_info9get_hintsEv(ptr noundef nonnull readonly align 8 captures(none) dereferenceable(8) %0) local_unnamed_addr #6 align 2 {
  %2 = load ptr, ptr %0, align 8, !tbaa !3
  %3 = getelementptr i8, ptr %2, i64 4
  %.val.i.i.i = load i32, ptr %3, align 4
  %.mask.i = and i32 %.val.i.i.i, -16777216
  %4 = icmp eq i32 %.mask.i, 16777216
  br i1 %4, label %5, label %9

5:                                                ; preds = %1
  %6 = getelementptr inbounds nuw i8, ptr %2, i64 8
  %7 = load ptr, ptr %6, align 8, !tbaa !3
  %8 = getelementptr inbounds nuw i8, ptr %7, i64 24
  br label %11

9:                                                ; preds = %1
  %10 = load ptr, ptr @_ZN4leanL8g_opaqueE, align 8, !tbaa !91
  br label %11

11:                                               ; preds = %9, %5
  %.0 = phi ptr [ %8, %5 ], [ %10, %9 ]
  ret ptr %.0
}